; Function Attrs: mustprogress uwtable
define hidden noundef zeroext i1 @_ZN3sls12basic_plugin9set_valueEP4exprS2_(ptr noundef nonnull readonly align 8 captures(none) dereferenceable(56) %0, ptr noundef %1, ptr noundef readnone captures(address) %2) unnamed_addr #3 align 2 {
  %4 = getelementptr inbounds nuw i8, ptr %0, i64 16
  %5 = load ptr, ptr %4, align 8, !tbaa !3
  %6 = tail call noundef zeroext i1 @_ZNK11ast_manager7is_boolEPK4expr(ptr noundef nonnull align 8 dereferenceable(976) %5, ptr noundef %1)
  br i1 %6, label %7, label %_ZN3sls12basic_plugin9set_valueEP4exprb.exit

7:                                                ; preds = %3
  %8 = load ptr, ptr %4, align 8, !tbaa !3
  %9 = getelementptr inbounds nuw i8, ptr %8, i64 856
  %10 = load ptr, ptr %9, align 8, !tbaa !38
  %11 = icmp eq ptr %2, %10
  %12 = getelementptr inbounds nuw i8, ptr %0, i64 8
  %13 = load ptr, ptr %12, align 8, !tbaa !11
  %14 = tail call i32 @_ZN3sls7context10mk_literalEP4expr(ptr noundef nonnull align 8 dereferenceable(321) %13, ptr noundef %1)
  %15 = load ptr, ptr %12, align 8, !tbaa !11
  %16 = getelementptr inbounds nuw i8, ptr %15, i64 8
  %17 = load ptr, ptr %16, align 8, !tbaa !101
  %18 = load ptr, ptr %17, align 8, !tbaa !129
  %19 = getelementptr inbounds nuw i8, ptr %18, i64 80
  %20 = load ptr, ptr %19, align 8
  %21 = tail call noundef zeroext i1 %20(ptr noundef nonnull align 8 dereferenceable(8) %17, i32 %14)
  %22 = xor i1 %11, %21
  br i1 %22, label %23, label %_ZN3sls12basic_plugin9set_valueEP4exprb.exit

23:                                               ; preds = %7
  %24 = load ptr, ptr %12, align 8, !tbaa !11
  %25 = lshr i32 %14, 1
  %26 = getelementptr inbounds nuw i8, ptr %24, i64 8
  %27 = load ptr, ptr %26, align 8, !tbaa !101
  %28 = load ptr, ptr %27, align 8, !tbaa !129
  %29 = getelementptr inbounds nuw i8, ptr %28, i64 40
  %30 = load ptr, ptr %29, align 8
  tail call void %30(ptr noundef nonnull align 8 dereferenceable(8) %27, i32 noundef %25)
  %31 = load ptr, ptr %12, align 8, !tbaa !11
  tail call void @_ZN3sls7context12new_value_ehEP4expr(ptr noundef nonnull align 8 dereferenceable(321) %31, ptr noundef %1)
  br label %_ZN3sls12basic_plugin9set_valueEP4exprb.exit

_ZN3sls12basic_plugin9set_valueEP4exprb.exit:     ; preds = %23, %7, %3
  ret i1 %6
}